target datalayout = "e-m:e-p270:32:32-p271:32:32-p272:64:64-i64:64-i128:128-f80:128-n8:16:32:64-S128"
target triple = "x86_64-pc-linux-gnu"

%struct.VVCTask = type { %union.anon.2, i32, i32, i32, i32, ptr, %struct.ProgressListener, [2 x [29 x %struct.ProgressListener]], ptr, ptr, i32, [10 x i8], i8 }
%union.anon.2 = type { %struct.FFTask }
%struct.FFTask = type { ptr, i32 }
%struct.ProgressListener = type { %struct.VVCProgressListener, ptr, ptr }
%struct.VVCProgressListener = type { i32, i32, ptr, ptr }
%struct.VVCFrameContext = type { ptr, [17 x %struct.VVCFrame], ptr, ptr, %struct.VVCFrameParamSets, ptr, i32, i32, ptr, %struct.VVCDSPContext, %struct.VideoDSPContext, ptr, i64, ptr, ptr, ptr, ptr, %struct.anon }
%struct.VVCFrame = type { ptr, ptr, ptr, ptr, ptr, ptr, i32, i32, i32, %struct.VVCWindow, i32, i32, ptr, ptr, i16, i8, ptr }
%struct.VVCWindow = type { i16, i16, i16, i16 }
%struct.VVCFrameParamSets = type { ptr, ptr, %struct.VVCPH, [8 x ptr], %struct.VVCLMCS, ptr }
%struct.VVCPH = type { ptr, ptr, i32, i32, i8, [3 x i16], i8, [3 x i16], %struct.PredWeightTable }
%struct.PredWeightTable = type { [2 x i8], [2 x i8], [2 x [2 x [15 x i8]]], [2 x [3 x [15 x i16]]], [2 x [3 x [15 x i16]]] }
%struct.VVCLMCS = type { i8, i8, %union.anon, %union.anon, [17 x i16], [16 x i16] }
%union.anon = type { [4096 x i16] }
%struct.VVCDSPContext = type { %struct.VVCInterDSPContext, %struct.VVCIntraDSPContext, %struct.VVCItxDSPContext, %struct.VVCLMCSDSPContext, %struct.VVCLFDSPContext, %struct.VVCSAODSPContext, %struct.VVCALFDSPContext }
%struct.VVCInterDSPContext = type { [2 x [7 x [2 x [2 x ptr]]]], [2 x [7 x [2 x [2 x ptr]]]], [2 x [7 x [2 x [2 x ptr]]]], [2 x [7 x ptr]], [2 x [7 x ptr]], [2 x [7 x ptr]], ptr, ptr, ptr, ptr, ptr, ptr, ptr, ptr, ptr, ptr, ptr, [2 x [2 x ptr]] }
%struct.VVCIntraDSPContext = type { ptr, ptr, ptr, ptr, ptr, ptr, ptr, ptr, ptr, ptr }
%struct.VVCItxDSPContext = type { ptr, ptr, [3 x [6 x ptr]], ptr, ptr }
%struct.VVCLMCSDSPContext = type { ptr }
%struct.VVCLFDSPContext = type { [2 x ptr], [2 x ptr], [2 x ptr] }
%struct.VVCSAODSPContext = type { [9 x ptr], [9 x ptr], [2 x ptr] }
%struct.VVCALFDSPContext = type { [2 x ptr], ptr, ptr, ptr }
%struct.VideoDSPContext = type { ptr, ptr }
%struct.anon = type { ptr, ptr, ptr, ptr, [2 x ptr], [2 x ptr], [2 x ptr], [2 x ptr], [2 x ptr], [3 x ptr], ptr, ptr, [2 x ptr], ptr, ptr, [2 x ptr], ptr, ptr, ptr, [2 x ptr], ptr, [3 x ptr], ptr, [2 x ptr], [2 x ptr], [2 x ptr], [2 x [3 x ptr]], [2 x ptr], [2 x ptr], [3 x ptr], [3 x ptr], [3 x [2 x ptr]], [3 x [2 x ptr]], ptr, ptr, ptr, [3 x ptr], %struct.anon.0 }
%struct.anon.0 = type { i32, i32, i32, i32, i32, i32, i32, i32, i32, i32, i32, i32 }
%struct.VVCLocalContext = type { i8, i8, i8, i8, i32, i32, [4 x i8], [3276800 x i8], [16384 x i16], [16384 x i16], [16384 x i16], [32768 x i8], [332800 x i8], [368640 x i8], [368640 x i8], [17424 x i32], %struct.anon.3, %struct.anon.4, ptr, [2 x [1024 x %struct.ReconstructedArea]], [2 x i32], %struct.NeighbourAvailable, i32, ptr, ptr, ptr, ptr }
%struct.anon.3 = type { i32, i8, i32, i32, i32, [3 x i32], i32, i32, i32, i32, i32, i32 }
%struct.anon.4 = type { i32, i32, i32 }
%struct.ReconstructedArea = type { i32, i32, i32, i32 }
%struct.NeighbourAvailable = type { i32, i32, i32, i32, i32 }
%struct.VVCFrameThread = type { i32, ptr, ptr, i32, i32, i32, i32, i32, i32, [2 x i32], %union.pthread_mutex_t, %union.pthread_cond_t }
%union.pthread_mutex_t = type { %struct.__pthread_mutex_s }
%struct.__pthread_mutex_s = type { i32, i32, i32, i32, i32, i16, i16, %struct.__pthread_internal_list }
%struct.__pthread_internal_list = type { ptr, ptr }
%union.pthread_cond_t = type { %struct.__pthread_cond_s }
%struct.__pthread_cond_s = type { %union.__atomic_wide_counter, %union.__atomic_wide_counter, [2 x i32], [2 x i32], i32, i32, [2 x i32] }
%union.__atomic_wide_counter = type { i64 }
%struct.VVCContext = type { ptr, ptr, %struct.CodedBitstreamFragment, %struct.VVCParamSets, i32, i32, i32, i32, i32, i32, i32, i16, i16, ptr, ptr, i32, i64, i32 }
%struct.CodedBitstreamFragment = type { ptr, i64, i64, ptr, i32, i32, ptr }
%struct.VVCParamSets = type { [16 x ptr], [64 x ptr], [8 x ptr], [4 x ptr], [8 x ptr], i16 }

@task_run_stage.run = internal constant [10 x ptr] [ptr @run_init, ptr @run_parse, ptr @run_deblock_bs, ptr @run_inter, ptr @run_recon, ptr @run_lmcs, ptr @run_deblock_v, ptr @run_deblock_h, ptr @run_sao, ptr @run_alf], align 16
@.str.1 = private unnamed_addr constant [41 x i8] c"frame %5d, %s(%3d, %3d) failed with %d\0D\0A\00", align 1
@task_name = internal global [10 x ptr] [ptr @.str.2, ptr @.str.3, ptr @.str.4, ptr @.str.5, ptr @.str.6, ptr @.str.7, ptr @.str.8, ptr @.str.9, ptr @.str.10, ptr @.str.11], align 16

; Function Attrs: nounwind uwtable
define internal zeroext i8 @task_get_score(ptr noundef %0, i32 noundef %1) #0 {
  %3 = alloca ptr, align 8
  %4 = alloca i32, align 4
  %5 = alloca i8, align 1
  store ptr %0, ptr %3, align 8, !tbaa !19
  store i32 %1, ptr %4, align 4, !tbaa !9
  %6 = load ptr, ptr %3, align 8, !tbaa !19
  %7 = getelementptr inbounds nuw %struct.VVCTask, ptr %6, i32 0, i32 11
  %8 = load i32, ptr %4, align 4, !tbaa !9
  %9 = zext i32 %8 to i64
  %10 = getelementptr inbounds nuw [10 x i8], ptr %7, i64 0, i64 %9
  %11 = load atomic i8, ptr %10 seq_cst, align 1
  store i8 %11, ptr %5, align 1
  %12 = load i8, ptr %5, align 1, !tbaa !109
  ret i8 %12
}

; Function Attrs: nounwind uwtable
define internal void @sheduled_done(ptr noundef %0, ptr noundef %1) #0 {
  %3 = alloca ptr, align 8
  %4 = alloca ptr, align 8
  %5 = alloca i32, align 4
  %6 = alloca i32, align 4
  store ptr %0, ptr %3, align 8, !tbaa !68
  store ptr %1, ptr %4, align 8, !tbaa !18
  %7 = load ptr, ptr %4, align 8, !tbaa !18
  store i32 1, ptr %5, align 4, !tbaa !9
  %8 = load i32, ptr %5, align 4
  %9 = atomicrmw sub ptr %7, i32 %8 seq_cst, align 4
  store i32 %9, ptr %6, align 4
  %10 = load i32, ptr %6, align 4, !tbaa !9
  %11 = icmp eq i32 %10, 1
  br i1 %11, label %12, label %22

12:                                               ; preds = %2
  %13 = load ptr, ptr %3, align 8, !tbaa !68
  %14 = getelementptr inbounds nuw %struct.VVCFrameThread, ptr %13, i32 0, i32 10
  %15 = call i32 @pthread_mutex_lock(ptr noundef %14) #7
  %16 = load ptr, ptr %3, align 8, !tbaa !68
  %17 = getelementptr inbounds nuw %struct.VVCFrameThread, ptr %16, i32 0, i32 11
  %18 = call i32 @pthread_cond_signal(ptr noundef %17) #7
  %19 = load ptr, ptr %3, align 8, !tbaa !68
  %20 = getelementptr inbounds nuw %struct.VVCFrameThread, ptr %19, i32 0, i32 10
  %21 = call i32 @pthread_mutex_unlock(ptr noundef %20) #7
  br label %22

22:                                               ; preds = %12, %2
  ret void
}

; Function Attrs: nounwind uwtable
define internal i32 @task_is_stage_ready(ptr noundef %0, i32 noundef %1) #0 {
  %3 = alloca i32, align 4
  %4 = alloca ptr, align 8
  %5 = alloca i32, align 4
  %6 = alloca i32, align 4
  %7 = alloca i8, align 1
  %8 = alloca i32, align 4
  store ptr %0, ptr %4, align 8, !tbaa !19
  store i32 %1, ptr %5, align 4, !tbaa !9
  call void @llvm.lifetime.start.p0(i64 4, ptr %6) #7
  %9 = load ptr, ptr %4, align 8, !tbaa !19
  %10 = getelementptr inbounds nuw %struct.VVCTask, ptr %9, i32 0, i32 1
  %11 = load i32, ptr %10, align 8, !tbaa !75
  store i32 %11, ptr %6, align 4, !tbaa !9
  call void @llvm.lifetime.start.p0(i64 1, ptr %7) #7
  %12 = load i32, ptr %6, align 4, !tbaa !9
  %13 = icmp ugt i32 %12, 9
  br i1 %13, label %14, label %15

14:                                               ; preds = %2
  store i32 0, ptr %3, align 4
  store i32 1, ptr %8, align 4
  br label %27

15:                                               ; preds = %2
  %16 = load ptr, ptr %4, align 8, !tbaa !19
  %17 = load i32, ptr %6, align 4, !tbaa !9
  %18 = call zeroext i8 @task_get_score(ptr noundef %16, i32 noundef %17)
  %19 = zext i8 %18 to i32
  %20 = load i32, ptr %5, align 4, !tbaa !9
  %21 = add nsw i32 %19, %20
  %22 = trunc i32 %21 to i8
  store i8 %22, ptr %7, align 1, !tbaa !109
  %23 = load ptr, ptr %4, align 8, !tbaa !19
  %24 = load i32, ptr %6, align 4, !tbaa !9
  %25 = load i8, ptr %7, align 1, !tbaa !109
  %26 = call i32 @task_has_target_score(ptr noundef %23, i32 noundef %24, i8 noundef zeroext %25)
  store i32 %26, ptr %3, align 4
  store i32 1, ptr %8, align 4
  br label %27

27:                                               ; preds = %15, %14
  call void @llvm.lifetime.end.p0(i64 1, ptr %7) #7
  call void @llvm.lifetime.end.p0(i64 4, ptr %6) #7
  %28 = load i32, ptr %3, align 4
  ret i32 %28
}

; Function Attrs: nounwind uwtable
define internal void @task_run_stage(ptr noundef %0, ptr noundef %1, ptr noundef %2) #0 {
  %4 = alloca ptr, align 8
  %5 = alloca ptr, align 8
  %6 = alloca ptr, align 8
  %7 = alloca i32, align 4
  %8 = alloca ptr, align 8
  %9 = alloca ptr, align 8
  %10 = alloca i32, align 4
  %11 = alloca i32, align 4
  %12 = alloca i32, align 4
  %13 = alloca i32, align 4
  %14 = alloca i8, align 1
  store ptr %0, ptr %4, align 8, !tbaa !19
  store ptr %1, ptr %5, align 8, !tbaa !4
  store ptr %2, ptr %6, align 8, !tbaa !21
  call void @llvm.lifetime.start.p0(i64 4, ptr %7) #7
  call void @llvm.lifetime.start.p0(i64 8, ptr %8) #7
  %15 = load ptr, ptr %4, align 8, !tbaa !19
  %16 = getelementptr inbounds nuw %struct.VVCTask, ptr %15, i32 0, i32 5
  %17 = load ptr, ptr %16, align 8, !tbaa !23
  store ptr %17, ptr %8, align 8, !tbaa !82
  call void @llvm.lifetime.start.p0(i64 8, ptr %9) #7
  %18 = load ptr, ptr %8, align 8, !tbaa !82
  %19 = getelementptr inbounds nuw %struct.VVCFrameContext, ptr %18, i32 0, i32 11
  %20 = load ptr, ptr %19, align 8, !tbaa !31
  store ptr %20, ptr %9, align 8, !tbaa !68
  call void @llvm.lifetime.start.p0(i64 4, ptr %10) #7
  %21 = load ptr, ptr %4, align 8, !tbaa !19
  %22 = getelementptr inbounds nuw %struct.VVCTask, ptr %21, i32 0, i32 1
  %23 = load i32, ptr %22, align 8, !tbaa !75
  store i32 %23, ptr %10, align 4, !tbaa !9
  br label %24

24:                                               ; preds = %3
  br label %25

25:                                               ; preds = %24
  br label %26

26:                                               ; preds = %25
  %27 = load ptr, ptr %4, align 8, !tbaa !19
  %28 = getelementptr inbounds nuw %struct.VVCTask, ptr %27, i32 0, i32 8
  %29 = load ptr, ptr %28, align 8, !tbaa !133
  %30 = load ptr, ptr %6, align 8, !tbaa !21
  %31 = getelementptr inbounds nuw %struct.VVCLocalContext, ptr %30, i32 0, i32 23
  store ptr %29, ptr %31, align 16, !tbaa !149
  %32 = load ptr, ptr %9, align 8, !tbaa !68
  %33 = getelementptr inbounds nuw %struct.VVCFrameThread, ptr %32, i32 0, i32 0
  %34 = load atomic i32, ptr %33 seq_cst, align 8
  store i32 %34, ptr %11, align 4
  %35 = load i32, ptr %11, align 4, !tbaa !9
  %36 = icmp ne i32 %35, 0
  br i1 %36, label %84, label %37

37:                                               ; preds = %26
  %38 = load i32, ptr %10, align 4, !tbaa !9
  %39 = zext i32 %38 to i64
  %40 = getelementptr inbounds nuw [10 x ptr], ptr @task_run_stage.run, i64 0, i64 %39
  %41 = load ptr, ptr %40, align 8, !tbaa !18
  %42 = load ptr, ptr %5, align 8, !tbaa !4
  %43 = load ptr, ptr %6, align 8, !tbaa !21
  %44 = load ptr, ptr %4, align 8, !tbaa !19
  %45 = call i32 %41(ptr noundef %42, ptr noundef %43, ptr noundef %44)
  store i32 %45, ptr %7, align 4, !tbaa !9
  %46 = icmp slt i32 %45, 0
  br i1 %46, label %47, label %77

47:                                               ; preds = %37
  call void @llvm.lifetime.start.p0(i64 4, ptr %12) #7
  store i32 0, ptr %12, align 4, !tbaa !9
  %48 = load ptr, ptr %9, align 8, !tbaa !68
  %49 = getelementptr inbounds nuw %struct.VVCFrameThread, ptr %48, i32 0, i32 0
  %50 = load i32, ptr %7, align 4, !tbaa !9
  store i32 %50, ptr %13, align 4, !tbaa !9
  %51 = load i32, ptr %12, align 4
  %52 = load i32, ptr %13, align 4
  %53 = cmpxchg ptr %49, i32 %51, i32 %52 seq_cst seq_cst, align 8
  %54 = extractvalue { i32, i1 } %53, 0
  %55 = extractvalue { i32, i1 } %53, 1
  br i1 %55, label %57, label %56

56:                                               ; preds = %47
  store i32 %54, ptr %12, align 4
  br label %57

57:                                               ; preds = %56, %47
  %58 = zext i1 %55 to i8
  store i8 %58, ptr %14, align 1, !tbaa !150
  %59 = load ptr, ptr %5, align 8, !tbaa !4
  %60 = getelementptr inbounds nuw %struct.VVCContext, ptr %59, i32 0, i32 0
  %61 = load ptr, ptr %60, align 8, !tbaa !134
  %62 = load ptr, ptr %8, align 8, !tbaa !82
  %63 = getelementptr inbounds nuw %struct.VVCFrameContext, ptr %62, i32 0, i32 12
  %64 = load i64, ptr %63, align 8, !tbaa !143
  %65 = trunc i64 %64 to i32
  %66 = load i32, ptr %10, align 4, !tbaa !9
  %67 = zext i32 %66 to i64
  %68 = getelementptr inbounds nuw [10 x ptr], ptr @task_name, i64 0, i64 %67
  %69 = load ptr, ptr %68, align 8, !tbaa !152
  %70 = load ptr, ptr %4, align 8, !tbaa !19
  %71 = getelementptr inbounds nuw %struct.VVCTask, ptr %70, i32 0, i32 2
  %72 = load i32, ptr %71, align 4, !tbaa !78
  %73 = load ptr, ptr %4, align 8, !tbaa !19
  %74 = getelementptr inbounds nuw %struct.VVCTask, ptr %73, i32 0, i32 3
  %75 = load i32, ptr %74, align 8, !tbaa !79
  %76 = load i32, ptr %7, align 4, !tbaa !9
  call void (ptr, i32, ptr, ...) @av_log(ptr noundef %61, i32 noundef 16, ptr noundef @.str.1, i32 noundef %65, ptr noundef %69, i32 noundef %72, i32 noundef %75, i32 noundef %76)
  call void @llvm.lifetime.end.p0(i64 4, ptr %12) #7
  br label %77

77:                                               ; preds = %57, %37
  %78 = load i32, ptr %7, align 4, !tbaa !9
  %79 = icmp ne i32 %78, 0
  br i1 %79, label %83, label %80

80:                                               ; preds = %77
  %81 = load ptr, ptr %4, align 8, !tbaa !19
  %82 = load ptr, ptr %5, align 8, !tbaa !4
  call void @task_stage_done(ptr noundef %81, ptr noundef %82)
  br label %83

83:                                               ; preds = %80, %77
  br label %84

84:                                               ; preds = %83, %26
  call void @llvm.lifetime.end.p0(i64 4, ptr %10) #7
  call void @llvm.lifetime.end.p0(i64 8, ptr %9) #7
  call void @llvm.lifetime.end.p0(i64 8, ptr %8) #7
  call void @llvm.lifetime.end.p0(i64 4, ptr %7) #7
  ret void
}

; Function Attrs: nounwind uwtable
define internal i32 @task_run(ptr noundef %0, ptr noundef %1, ptr noundef %2) #0 {
  %4 = alloca ptr, align 8
  %5 = alloca ptr, align 8
  %6 = alloca ptr, align 8
  %7 = alloca ptr, align 8
  %8 = alloca ptr, align 8
  %9 = alloca ptr, align 8
  %10 = alloca ptr, align 8
  store ptr %0, ptr %4, align 8, !tbaa !16
  store ptr %1, ptr %5, align 8, !tbaa !18
  store ptr %2, ptr %6, align 8, !tbaa !18
  call void @llvm.lifetime.start.p0(i64 8, ptr %7) #7
  %11 = load ptr, ptr %4, align 8, !tbaa !16
  store ptr %11, ptr %7, align 8, !tbaa !19
  call void @llvm.lifetime.start.p0(i64 8, ptr %8) #7
  %12 = load ptr, ptr %6, align 8, !tbaa !18
  store ptr %12, ptr %8, align 8, !tbaa !4
  call void @llvm.lifetime.start.p0(i64 8, ptr %9) #7
  %13 = load ptr, ptr %5, align 8, !tbaa !18
  store ptr %13, ptr %9, align 8, !tbaa !21
  call void @llvm.lifetime.start.p0(i64 8, ptr %10) #7
  %14 = load ptr, ptr %7, align 8, !tbaa !19
  %15 = getelementptr inbounds nuw %struct.VVCTask, ptr %14, i32 0, i32 5
  %16 = load ptr, ptr %15, align 8, !tbaa !23
  %17 = getelementptr inbounds nuw %struct.VVCFrameContext, ptr %16, i32 0, i32 11
  %18 = load ptr, ptr %17, align 8, !tbaa !31
  store ptr %18, ptr %10, align 8, !tbaa !68
  %19 = load ptr, ptr %7, align 8, !tbaa !19
  %20 = getelementptr inbounds nuw %struct.VVCTask, ptr %19, i32 0, i32 5
  %21 = load ptr, ptr %20, align 8, !tbaa !23
  %22 = load ptr, ptr %9, align 8, !tbaa !21
  %23 = getelementptr inbounds nuw %struct.VVCLocalContext, ptr %22, i32 0, i32 24
  store ptr %21, ptr %23, align 8, !tbaa !69
  br label %24

24:                                               ; preds = %32, %3
  %25 = load ptr, ptr %7, align 8, !tbaa !19
  %26 = load ptr, ptr %8, align 8, !tbaa !4
  %27 = load ptr, ptr %9, align 8, !tbaa !21
  call void @task_run_stage(ptr noundef %25, ptr noundef %26, ptr noundef %27)
  %28 = load ptr, ptr %7, align 8, !tbaa !19
  %29 = getelementptr inbounds nuw %struct.VVCTask, ptr %28, i32 0, i32 1
  %30 = load i32, ptr %29, align 8, !tbaa !75
  %31 = add i32 %30, 1
  store i32 %31, ptr %29, align 8, !tbaa !75
  br label %32

32:                                               ; preds = %24
  %33 = load ptr, ptr %7, align 8, !tbaa !19
  %34 = call i32 @task_is_stage_ready(ptr noundef %33, i32 noundef 1)
  %35 = icmp ne i32 %34, 0
  br i1 %35, label %24, label %36, !llvm.loop !76

36:                                               ; preds = %32
  %37 = load ptr, ptr %7, align 8, !tbaa !19
  %38 = getelementptr inbounds nuw %struct.VVCTask, ptr %37, i32 0, i32 1
  %39 = load i32, ptr %38, align 8, !tbaa !75
  %40 = icmp ne i32 %39, 10
  br i1 %40, label %41, label %53

41:                                               ; preds = %36
  %42 = load ptr, ptr %8, align 8, !tbaa !4
  %43 = load ptr, ptr %10, align 8, !tbaa !68
  %44 = load ptr, ptr %7, align 8, !tbaa !19
  %45 = getelementptr inbounds nuw %struct.VVCTask, ptr %44, i32 0, i32 2
  %46 = load i32, ptr %45, align 4, !tbaa !78
  %47 = load ptr, ptr %7, align 8, !tbaa !19
  %48 = getelementptr inbounds nuw %struct.VVCTask, ptr %47, i32 0, i32 3
  %49 = load i32, ptr %48, align 8, !tbaa !79
  %50 = load ptr, ptr %7, align 8, !tbaa !19
  %51 = getelementptr inbounds nuw %struct.VVCTask, ptr %50, i32 0, i32 1
  %52 = load i32, ptr %51, align 8, !tbaa !75
  call void @frame_thread_add_score(ptr noundef %42, ptr noundef %43, i32 noundef %46, i32 noundef %49, i32 noundef %52)
  br label %53

53:                                               ; preds = %41, %36
  %54 = load ptr, ptr %10, align 8, !tbaa !68
  %55 = load ptr, ptr %10, align 8, !tbaa !68
  %56 = getelementptr inbounds nuw %struct.VVCFrameThread, ptr %55, i32 0, i32 7
  call void @sheduled_done(ptr noundef %54, ptr noundef %56)
  call void @llvm.lifetime.end.p0(i64 8, ptr %10) #7
  call void @llvm.lifetime.end.p0(i64 8, ptr %9) #7
  call void @llvm.lifetime.end.p0(i64 8, ptr %8) #7
  call void @llvm.lifetime.end.p0(i64 8, ptr %7) #7
  ret i32 0
}