; Function Attrs: nounwind uwtable
define internal noundef i32 @task_run(ptr noundef %0, ptr noundef initializes((4580544, 4580560)) %1, ptr noundef %2) #0 {
  %4 = getelementptr inbounds nuw i8, ptr %0, i64 32
  %5 = load ptr, ptr %4, align 8, !tbaa !13
  %6 = getelementptr inbounds nuw i8, ptr %5, i64 21288
  %7 = load ptr, ptr %6, align 8, !tbaa !23
  %8 = getelementptr inbounds nuw i8, ptr %1, i64 4580552
  store ptr %5, ptr %8, align 8, !tbaa !60
  %9 = getelementptr inbounds nuw i8, ptr %0, i64 16
  %10 = getelementptr inbounds nuw i8, ptr %0, i64 2400
  %11 = getelementptr inbounds nuw i8, ptr %1, i64 4580544
  %12 = getelementptr inbounds nuw i8, ptr %0, i64 20
  %13 = getelementptr inbounds nuw i8, ptr %0, i64 24
  %14 = getelementptr inbounds nuw i8, ptr %0, i64 2420
  br label %15

15:                                               ; preds = %task_is_stage_ready.exit, %3
  %16 = load ptr, ptr %4, align 8, !tbaa !13
  %17 = getelementptr inbounds nuw i8, ptr %16, i64 21288
  %18 = load ptr, ptr %17, align 8, !tbaa !23
  %19 = load i32, ptr %9, align 8, !tbaa !66
  %20 = load ptr, ptr %10, align 8, !tbaa !67
  store ptr %20, ptr %11, align 16, !tbaa !68
  %21 = load atomic i32, ptr %18 seq_cst, align 8
  %.not.i = icmp eq i32 %21, 0
  br i1 %.not.i, label %22, label %task_run_stage.exit

22:                                               ; preds = %15
  %23 = zext i32 %19 to i64
  %24 = getelementptr inbounds nuw [10 x ptr], ptr @task_run_stage.run, i64 0, i64 %23
  %25 = load ptr, ptr %24, align 8, !tbaa !69
  %26 = tail call i32 %25(ptr noundef %2, ptr noundef nonnull %1, ptr noundef nonnull %0) #7
  %27 = icmp slt i32 %26, 0
  br i1 %27, label %.thread.i, label %37

.thread.i:                                        ; preds = %22
  %28 = cmpxchg ptr %18, i32 0, i32 %26 seq_cst seq_cst, align 8
  %29 = load ptr, ptr %2, align 8, !tbaa !70
  %30 = getelementptr inbounds nuw i8, ptr %16, i64 21296
  %31 = load i64, ptr %30, align 8, !tbaa !80
  %32 = trunc i64 %31 to i32
  %33 = getelementptr inbounds nuw [10 x ptr], ptr @task_name, i64 0, i64 %23
  %34 = load ptr, ptr %33, align 8, !tbaa !81
  %35 = load i32, ptr %12, align 4, !tbaa !82
  %36 = load i32, ptr %13, align 8, !tbaa !83
  tail call void (ptr, i32, ptr, ...) @av_log(ptr noundef %29, i32 noundef 16, ptr noundef nonnull @.str.1, i32 noundef %32, ptr noundef %34, i32 noundef %35, i32 noundef %36, i32 noundef %26) #7
  br label %task_run_stage.exit

37:                                               ; preds = %22
  %.not23.i = icmp eq i32 %26, 0
  br i1 %.not23.i, label %38, label %task_run_stage.exit

38:                                               ; preds = %37
  tail call fastcc void @task_stage_done(ptr noundef nonnull %0, ptr noundef %2)
  br label %task_run_stage.exit

task_run_stage.exit:                              ; preds = %15, %.thread.i, %37, %38
  %39 = load i32, ptr %9, align 8, !tbaa !66
  %40 = add i32 %39, 1
  store i32 %40, ptr %9, align 8, !tbaa !66
  %41 = icmp ugt i32 %40, 9
  br i1 %41, label %task_is_stage_ready.exit.thread, label %task_is_stage_ready.exit

task_is_stage_ready.exit:                         ; preds = %task_run_stage.exit
  %42 = zext nneg i32 %40 to i64
  %43 = getelementptr inbounds nuw [10 x i8], ptr %14, i64 0, i64 %42
  %44 = load atomic i8, ptr %43 seq_cst, align 1
  %45 = add i8 %44, 1
  %46 = tail call fastcc i32 @task_has_target_score(ptr noundef nonnull readonly %0, i32 noundef %40, i8 noundef zeroext %45)
  %.not = icmp eq i32 %46, 0
  br i1 %.not, label %thread-pre-split, label %15, !llvm.loop !84

thread-pre-split:                                 ; preds = %task_is_stage_ready.exit
  %.pr = load i32, ptr %9, align 8, !tbaa !66
  br label %task_is_stage_ready.exit.thread

task_is_stage_ready.exit.thread:                  ; preds = %task_run_stage.exit, %thread-pre-split
  %47 = phi i32 [ %.pr, %thread-pre-split ], [ %40, %task_run_stage.exit ]
  %.not19 = icmp eq i32 %47, 10
  br i1 %.not19, label %51, label %48

48:                                               ; preds = %task_is_stage_ready.exit.thread
  %49 = load i32, ptr %12, align 4, !tbaa !82
  %50 = load i32, ptr %13, align 8, !tbaa !83
  tail call fastcc void @frame_thread_add_score(ptr noundef %2, ptr noundef %7, i32 noundef %49, i32 noundef %50, i32 noundef %47)
  br label %51

51:                                               ; preds = %48, %task_is_stage_ready.exit.thread
  %52 = getelementptr inbounds nuw i8, ptr %7, i64 40
  %53 = atomicrmw sub ptr %52, i32 1 seq_cst, align 4
  %54 = icmp eq i32 %53, 1
  br i1 %54, label %55, label %sheduled_done.exit

55:                                               ; preds = %51
  %56 = getelementptr inbounds nuw i8, ptr %7, i64 56
  %57 = tail call i32 @pthread_mutex_lock(ptr noundef nonnull %56) #7
  %58 = getelementptr inbounds nuw i8, ptr %7, i64 96
  %59 = tail call i32 @pthread_cond_signal(ptr noundef nonnull %58) #7
  %60 = tail call i32 @pthread_mutex_unlock(ptr noundef nonnull %56) #7
  br label %sheduled_done.exit

sheduled_done.exit:                               ; preds = %51, %55
  ret i32 0
}